	.file	"main.c"
	.intel_syntax noprefix
	.text
.Ltext0:
	.cfi_sections	.debug_frame
	.file 0 "D:/MGU/Micros/Micros/Atmega/Programming/Lesson_23/MYPROG23" "src/main.c"
	.globl	res
	.bss
	.align 4
res:
	.space 4
	.globl	str1
	.align 16
str1:
	.space 30
	.globl	yf
	.align 4
yf:
	.space 4
	.globl	zf
	.align 4
zf:
	.space 4
	.section .rdata,"dr"
.LC0:
	.ascii "i=%d\12\0"
	.text
	.globl	main
	.def	main;	.scl	2;	.type	32;	.endef
	.seh_proc	main
main:
.LFB129:
	.file 1 "src/main.c"
	.loc 1 13 1
	.cfi_startproc
	push	rbp
	.seh_pushreg	rbp
	.cfi_def_cfa_offset 16
	.cfi_offset 6, -16
	push	rbx
	.seh_pushreg	rbx
	.cfi_def_cfa_offset 24
	.cfi_offset 3, -24
	sub	rsp, 40
	.seh_stackalloc	40
	.cfi_def_cfa_offset 64
	lea	rbp, 32[rsp]
	.seh_setframe	rbp, 32
	.cfi_def_cfa 6, 32
	.seh_endprologue
	.loc 1 13 1
	call	__main
	.loc 1 14 16
	mov	ebx, 0
	.loc 1 15 10
	jmp	.L2
.L3:
	.loc 1 17 8
	add	ebx, 1
	.loc 1 18 7
	mov	edx, ebx
	lea	rax, .LC0[rip]
	mov	rcx, rax
	call	printf
.L2:
	.loc 1 15 12
	cmp	ebx, 9
	jle	.L3
	.loc 1 109 10
	mov	eax, 0
	.loc 1 110 1
	add	rsp, 40
	pop	rbx
	.cfi_restore 3
	pop	rbp
	.cfi_restore 6
	.cfi_def_cfa 7, -24
	ret
	.cfi_endproc
.LFE129:
	.seh_endproc
	.section .rdata,"dr"
.LC1:
	.ascii "%s %.5f\12\0"
	.text
	.globl	print_res
	.def	print_res;	.scl	2;	.type	32;	.endef
	.seh_proc	print_res
print_res:
.LFB130:
	.loc 1 113 1
	.cfi_startproc
	push	rbp
	.seh_pushreg	rbp
	.cfi_def_cfa_offset 16
	.cfi_offset 6, -16
	mov	rbp, rsp
	.seh_setframe	rbp, 0
	.cfi_def_cfa_register 6
	sub	rsp, 32
	.seh_stackalloc	32
	.seh_endprologue
	mov	QWORD PTR 16[rbp], rcx
	.loc 1 114 3
	mov	edx, DWORD PTR res[rip]
	mov	rax, QWORD PTR 16[rbp]
	mov	r8d, edx
	mov	rdx, rax
	lea	rax, .LC1[rip]
	mov	rcx, rax
	call	printf
	.loc 1 115 1
	nop
	add	rsp, 32
	pop	rbp
	.cfi_restore 6
	.cfi_def_cfa 7, 8
	ret
	.cfi_endproc
.LFE130:
	.seh_endproc
	.globl	my_counter
	.def	my_counter;	.scl	2;	.type	32;	.endef
	.seh_proc	my_counter
my_counter:
.LFB131:
	.loc 1 119 1
	.cfi_startproc
	push	rbp
	.seh_pushreg	rbp
	.cfi_def_cfa_offset 16
	.cfi_offset 6, -16
	mov	rbp, rsp
	.seh_setframe	rbp, 0
	.cfi_def_cfa_register 6
	sub	rsp, 32
	.seh_stackalloc	32
	.seh_endprologue
	.loc 1 121 3
	mov	eax, DWORD PTR i.0[rip]
	mov	edx, eax
	lea	rax, .LC0[rip]
	mov	rcx, rax
	call	printf
	.loc 1 122 4
	mov	eax, DWORD PTR i.0[rip]
	add	eax, 1
	mov	DWORD PTR i.0[rip], eax
	.loc 1 123 1
	nop
	add	rsp, 32
	pop	rbp
	.cfi_restore 6
	.cfi_def_cfa 7, 8
	ret
	.cfi_endproc
.LFE131:
	.seh_endproc
.lcomm i.0,4,4
.Letext0:
	.file 2 "D:/mingw64/x86_64-w64-mingw32/include/stdio.h"