	.file	"ariph.c"
	.intel_syntax noprefix
	.text
.Ltext0:
	.cfi_sections	.debug_frame
	.file 0 "D:/MGU/Micros/Micros/Atmega/Programming/Lesson_25/MYPROG25" "src/ariph.c"
	.globl	my_div
	.def	my_div;	.scl	2;	.type	32;	.endef
	.seh_proc	my_div
my_div:
.LFB0:
	.file 1 "src/ariph.c"
	.loc 1 6 1
	.cfi_startproc
	push	rbp
	.seh_pushreg	rbp
	.cfi_def_cfa_offset 16
	.cfi_offset 6, -16
	mov	rbp, rsp
	.seh_setframe	rbp, 0
	.cfi_def_cfa_register 6
	.seh_endprologue
	.loc 1 7 12
	mov	rax, QWORD PTR .refptr.yf[rip]
	movss	xmm0, DWORD PTR [rax]
	mov	rax, QWORD PTR .refptr.zf[rip]
	movss	xmm1, DWORD PTR [rax]
	divss	xmm0, xmm1
	.loc 1 8 1
	pop	rbp
	.cfi_restore 6
	.cfi_def_cfa 7, 8
	ret
	.cfi_endproc
.LFE0:
	.seh_endproc
	.globl	my_sum
	.def	my_sum;	.scl	2;	.type	32;	.endef
	.seh_proc	my_sum
my_sum:
.LFB1:
	.loc 1 11 1
	.cfi_startproc
	push	rbp
	.seh_pushreg	rbp
	.cfi_def_cfa_offset 16
	.cfi_offset 6, -16
	mov	rbp, rsp
	.seh_setframe	rbp, 0
	.cfi_def_cfa_register 6
	.seh_endprologue
	.loc 1 12 12
	mov	rax, QWORD PTR .refptr.yf[rip]
	movss	xmm1, DWORD PTR [rax]
	mov	rax, QWORD PTR .refptr.zf[rip]
	movss	xmm0, DWORD PTR [rax]
	addss	xmm0, xmm1
	.loc 1 13 1
	pop	rbp
	.cfi_restore 6
	.cfi_def_cfa 7, 8
	ret
	.cfi_endproc
.LFE1:
	.seh_endproc
.Letext0:
	.section	.rdata$.refptr.zf, "dr"
	.globl	.refptr.zf
	.linkonce	discard
.refptr.zf:
	.quad	zf
	.section	.rdata$.refptr.yf, "dr"
	.globl	.refptr.yf
	.linkonce	discard
.refptr.yf:
	.quad	yf
